Certificate:
    Data:
        Version: 1 (0x0)
        Serial Number: 1 (0x1)
    Signature Algorithm: sha256WithRSAEncryption
        Issuer: C=cn, ST=beijing, L=bj, O=tencent, OU=iov, CN=gale/emailAddress=gale.zhang@outlook.com
        Validity
            Not Before: May 27 05:13:30 2022 GMT
            Not After : Jun 26 05:13:30 2022 GMT
        Subject: C=cn, ST=beijing, O=tencent, OU=iov, CN=gale/emailAddress=gale.zhang@outlook.com
        Subject Public Key Info:
            Public Key Algorithm: rsaEncryption
                Public-Key: (1024 bit)
                Modulus:
                    00:c6:38:cb:a7:7b:ca:f1:1e:5b:76:f8:39:fc:cf:
                    ed:12:6d:03:ae:5b:29:85:e6:b4:16:82:7d:a2:fe:
                    7b:09:7f:8c:74:a7:b4:f6:72:41:4c:19:49:23:09:
                    5e:2b:31:18:68:b5:21:32:90:ac:63:f1:20:3e:9f:
                    f2:d6:26:b4:03:da:af:1f:26:c7:e8:db:58:e9:31:
                    c5:68:65:78:7d:89:c8:af:ae:ab:56:63:2c:fa:a7:
                    eb:49:4e:9b:d6:cb:e9:67:77:fb:c1:90:2d:ac:a6:
                    b5:3f:d6:34:cc:b4:2b:71:ec:9a:68:2e:ef:c9:c0:
                    c3:ba:e0:dc:3a:73:27:92:3b
                Exponent: 65537 (0x10001)
    Signature Algorithm: sha256WithRSAEncryption
         c1:a3:44:dd:31:5d:d1:91:4d:f3:b2:57:3f:fb:ba:ca:11:d0:
         3e:bc:1e:94:b3:01:b9:a1:2d:25:9a:7c:bc:b8:b5:f0:e9:da:
         75:8c:bc:d9:fb:cd:28:e8:db:71:7c:05:bc:52:fd:ec:83:1d:
         31:d5:32:9d:14:44:df:f5:06:bd:54:0e:3a:a1:bf:1a:75:c9:
         c0:24:a2:d2:06:b7:07:cc:d4:76:6d:08:e9:e0:91:c8:de:8c:
         d3:55:b8:2d:40:1d:df:4b:d5:f9:b1:24:eb:fe:f7:ff:33:49:
         ab:7e:30:be:95:6a:0e:27:ea:d6:b8:5c:51:bb:e4:1a:e6:0f:
         64:8f:6d:05:7f:87:51:bd:0e:c4:33:88:f8:8c:86:14:9e:72:
         0a:26:0e:6d:b5:4a:28:ea:22:56:b6:91:d4:91:e4:8d:55:5d:
         e0:93:05:33:ee:13:05:3e:0c:98:e6:7e:cb:fc:0d:79:e5:1d:
         47:2f:1e:ee:ec:e9:e8:9b:fd:ea:66:dd:3c:47:94:20:45:2d:
         a2:fc:f7:4f:c7:3a:f6:94:85:de:68:22:00:24:b1:cb:fb:ee:
         2d:b2:2c:9d:79:fa:79:79:42:f5:c6:dc:b4:94:36:91:2a:ea:
         7f:ef:32:98:a4:43:60:57:4f:5e:4f:94:82:31:f9:6f:b3:00:
         62:b4:81:ac
-----BEGIN CERTIFICATE-----
MIIC6DCCAdACAQEwDQYJKoZIhvcNAQELBQAwgYIxCzAJBgNVBAYTAmNuMRAwDgYD
VQQIDAdiZWlqaW5nMQswCQYDVQQHDAJiajEQMA4GA1UECgwHdGVuY2VudDEMMAoG
A1UECwwDaW92MQ0wCwYDVQQDDARnYWxlMSUwIwYJKoZIhvcNAQkBFhZnYWxlLnpo
YW5nQG91dGxvb2suY29tMB4XDTIyMDUyNzA1MTMzMFoXDTIyMDYyNjA1MTMzMFow
dTELMAkGA1UEBhMCY24xEDAOBgNVBAgMB2JlaWppbmcxEDAOBgNVBAoMB3RlbmNl
bnQxDDAKBgNVBAsMA2lvdjENMAsGA1UEAwwEZ2FsZTElMCMGCSqGSIb3DQEJARYW
Z2FsZS56aGFuZ0BvdXRsb29rLmNvbTCBnzANBgkqhkiG9w0BAQEFAAOBjQAwgYkC
gYEAxjjLp3vK8R5bdvg5/M/tEm0Drlsphea0FoJ9ov57CX+MdKe09nJBTBlJIwle
KzEYaLUhMpCsY/EgPp/y1ia0A9qvHybH6NtY6THFaGV4fYnIr66rVmMs+qfrSU6b
1svpZ3f7wZAtrKa1P9Y0zLQrceyaaC7vycDDuuDcOnMnkjsCAwEAATANBgkqhkiG
9w0BAQsFAAOCAQEAwaNE3TFd0ZFN87JXP/u6yhHQPrwelLMBuaEtJZp8vLi18Ona
dYy82fvNKOjbcXwFvFL97IMdMdUynRRE3/UGvVQOOqG/GnXJwCSi0ga3B8zUdm0I
6eCRyN6M01W4LUAd30vV+bEk6/73/zNJq34wvpVqDifq1rhcUbvkGuYPZI9tBX+H
Ub0OxDOI+IyGFJ5yCiYObbVKKOoiVraR1JHkjVVd4JMFM+4TBT4MmOZ+y/wNeeUd
Ry8e7uzp6Jv96mbdPEeUIEUtovz3T8c69pSF3mgiACSxy/vuLbIsnXn6eXlC9cbc
tJQ2kSrqf+8ymKRDYFdPXk+UgjH5b7MAYrSBrA==
-----END CERTIFICATE-----
