Certificate:
    Data:
        Version: 1 (0x0)
        Serial Number: 1 (0x1)
    Signature Algorithm: sha256WithRSAEncryption
        Issuer: C=cn, ST=beijing, L=bj, O=tencent, OU=iov, CN=gale/emailAddress=gale.zhang@outlook.com
        Validity
            Not Before: May 27 04:24:51 2022 GMT
            Not After : Jun 26 04:24:51 2022 GMT
        Subject: C=cn, ST=beijing, O=tencent, OU=iov, CN=gale/emailAddress=gale.zhang@outlook.com
        Subject Public Key Info:
            Public Key Algorithm: rsaEncryption
                Public-Key: (2048 bit)
                Modulus:
                    00:d0:ae:7c:ca:3e:90:55:5b:b4:85:1d:40:37:15:
                    e5:db:0f:de:ec:49:ff:c6:ea:84:f7:f1:a0:3d:ac:
                    40:91:9a:53:9e:44:1a:dd:a8:71:6c:04:9d:36:06:
                    74:1c:1d:77:79:22:90:84:45:b4:f2:50:3a:23:84:
                    57:e0:e6:99:68:87:3c:df:5e:97:6b:b0:ea:30:33:
                    d8:d3:3f:16:ba:e8:aa:83:31:04:3c:be:1c:c4:69:
                    fe:a8:c9:6c:9b:50:2d:6f:e8:30:6a:ab:e6:04:fe:
                    5d:d9:9b:44:e1:86:b0:7a:8e:98:b7:a5:d3:42:90:
                    4a:14:af:7a:fc:e2:ab:10:a5:bc:c0:04:4e:50:fb:
                    12:89:bf:6d:68:32:87:72:be:23:75:d3:64:8f:cb:
                    ed:f5:e5:30:54:e8:61:e0:dd:74:39:37:be:b4:99:
                    58:1b:ea:67:12:b0:74:45:ec:fd:78:5a:63:59:6b:
                    84:ec:b7:f6:76:d3:cd:a6:fe:e5:82:88:9d:cd:81:
                    a6:c1:90:c9:14:6b:05:00:57:7b:41:db:f4:0e:c3:
                    fd:4b:57:07:b0:59:f6:c4:2b:8f:7b:fb:5d:49:89:
                    7e:a1:f6:6d:b9:e4:be:99:74:22:76:c9:6d:9a:e2:
                    31:f5:25:73:f0:25:b4:e3:ac:61:7c:df:db:bf:fc:
                    4c:cb
                Exponent: 65537 (0x10001)
    Signature Algorithm: sha256WithRSAEncryption
         9a:8b:a5:a0:6b:1c:b5:a7:8b:b7:bb:57:d0:29:b6:c8:fd:24:
         e0:1a:6a:9c:69:d1:51:03:dc:de:85:9c:74:b9:d6:77:13:e5:
         58:a8:c0:df:6e:50:94:1e:b4:96:9a:be:69:e8:c2:82:de:d0:
         28:d7:14:42:89:bf:0b:b3:e3:77:47:51:ff:2a:44:70:bd:9b:
         53:9b:2f:d0:a2:81:33:5d:db:42:96:d0:88:b8:d2:85:3b:74:
         c6:67:4f:2a:21:03:4b:80:1e:60:ad:79:a7:71:b3:37:4d:5f:
         23:d1:c9:cd:0a:ff:8f:a0:98:13:bd:3b:69:67:de:9c:06:9c:
         aa:47:67:39:45:8f:da:02:5a:5c:d5:b8:24:10:1a:ad:e2:69:
         31:3a:f0:7c:50:a8:1f:77:f5:cb:0e:44:82:c8:0b:3a:87:2a:
         1e:f3:8d:9b:8c:20:9f:a1:64:23:bb:80:86:97:50:93:c7:5a:
         77:d9:39:c2:ee:67:d4:28:de:05:6f:d5:1d:f3:ec:84:b1:83:
         04:fc:b1:a5:33:c3:39:83:c1:f2:03:4c:9e:13:ea:70:fa:f6:
         48:2f:9f:cf:35:ec:c6:0b:b6:e7:97:e5:6f:d9:56:cb:8a:5c:
         dc:da:1b:e5:80:d3:5c:8f:66:bf:97:7e:70:57:f9:f1:2c:ca:
         11:d5:80:e6
-----BEGIN CERTIFICATE-----
MIIDbDCCAlQCAQEwDQYJKoZIhvcNAQELBQAwgYIxCzAJBgNVBAYTAmNuMRAwDgYD
VQQIDAdiZWlqaW5nMQswCQYDVQQHDAJiajEQMA4GA1UECgwHdGVuY2VudDEMMAoG
A1UECwwDaW92MQ0wCwYDVQQDDARnYWxlMSUwIwYJKoZIhvcNAQkBFhZnYWxlLnpo
YW5nQG91dGxvb2suY29tMB4XDTIyMDUyNzA0MjQ1MVoXDTIyMDYyNjA0MjQ1MVow
dTELMAkGA1UEBhMCY24xEDAOBgNVBAgMB2JlaWppbmcxEDAOBgNVBAoMB3RlbmNl
bnQxDDAKBgNVBAsMA2lvdjENMAsGA1UEAwwEZ2FsZTElMCMGCSqGSIb3DQEJARYW
Z2FsZS56aGFuZ0BvdXRsb29rLmNvbTCCASIwDQYJKoZIhvcNAQEBBQADggEPADCC
AQoCggEBANCufMo+kFVbtIUdQDcV5dsP3uxJ/8bqhPfxoD2sQJGaU55EGt2ocWwE
nTYGdBwdd3kikIRFtPJQOiOEV+DmmWiHPN9el2uw6jAz2NM/FrroqoMxBDy+HMRp
/qjJbJtQLW/oMGqr5gT+XdmbROGGsHqOmLel00KQShSvevziqxClvMAETlD7Eom/
bWgyh3K+I3XTZI/L7fXlMFToYeDddDk3vrSZWBvqZxKwdEXs/XhaY1lrhOy39nbT
zab+5YKInc2BpsGQyRRrBQBXe0Hb9A7D/UtXB7BZ9sQrj3v7XUmJfqH2bbnkvpl0
InbJbZriMfUlc/AltOOsYXzf27/8TMsCAwEAATANBgkqhkiG9w0BAQsFAAOCAQEA
mouloGsctaeLt7tX0Cm2yP0k4BpqnGnRUQPc3oWcdLnWdxPlWKjA325QlB60lpq+
aejCgt7QKNcUQom/C7Pjd0dR/ypEcL2bU5sv0KKBM13bQpbQiLjShTt0xmdPKiED
S4AeYK15p3GzN01fI9HJzQr/j6CYE707aWfenAacqkdnOUWP2gJaXNW4JBAareJp
MTrwfFCoH3f1yw5EgsgLOocqHvONm4wgn6FkI7uAhpdQk8dad9k5wu5n1CjeBW/V
HfPshLGDBPyxpTPDOYPB8gNMnhPqcPr2SC+fzzXsxgu255flb9lWy4pc3Nob5YDT
XI9mv5d+cFf58SzKEdWA5g==
-----END CERTIFICATE-----
