Certificate:
    Data:
        Version: 1 (0x0)
        Serial Number: 2 (0x2)
    Signature Algorithm: sha256WithRSAEncryption
        Issuer: C=cn, ST=beijing, L=bj, O=tencent, OU=iov, CN=gale/emailAddress=gale.zhang@outlook.com
        Validity
            Not Before: May 27 07:54:54 2022 GMT
            Not After : Jun 26 07:54:54 2022 GMT
        Subject: C=cn, ST=beijing, O=tencent, OU=iov, CN=gale
        Subject Public Key Info:
            Public Key Algorithm: rsaEncryption
                Public-Key: (2048 bit)
                Modulus:
                    00:de:9e:e9:e1:f9:1a:15:06:95:6c:61:bd:2c:02:
                    38:5c:cf:b9:a0:3a:33:e9:dc:e7:ce:c8:8b:26:c2:
                    fd:92:b6:cb:51:1c:eb:83:5b:3b:37:16:ef:b7:f6:
                    56:90:43:c5:d2:ce:a8:65:bd:e3:03:dc:e4:9f:cb:
                    e1:7b:d4:21:b2:24:cf:6f:d6:d8:97:58:1d:2f:7c:
                    56:a8:73:aa:1f:28:e2:3c:f2:cd:d3:7e:81:8b:75:
                    fd:a3:46:30:19:f8:6f:87:86:fb:24:57:19:35:df:
                    76:1e:47:a4:77:15:06:81:63:ee:f0:ee:a9:a0:40:
                    b7:15:eb:c9:5d:7e:1a:6c:f3:9e:ea:c9:52:6a:99:
                    63:cc:2b:19:6e:ab:ec:9f:c2:81:67:29:e3:fe:61:
                    97:82:65:4b:a3:3d:b6:96:5b:c2:97:c8:f6:0d:c2:
                    f9:d5:cd:82:ff:6c:69:9b:3c:d0:bb:41:e2:b6:5c:
                    17:95:ac:a4:84:af:3b:c7:06:a3:09:ff:9a:c3:1a:
                    2e:b6:9b:ac:9e:6c:7d:dd:48:74:18:d6:d0:c6:5c:
                    a2:9c:02:8b:03:35:c5:37:67:1c:42:cd:d1:d7:0b:
                    8b:0e:54:5f:2d:e4:cc:3f:9e:66:0f:b2:6a:03:8f:
                    68:4b:dc:19:4b:43:44:8e:c1:63:48:56:67:b8:0c:
                    dc:f7
                Exponent: 65537 (0x10001)
    Signature Algorithm: sha256WithRSAEncryption
         00:20:ec:77:17:c2:e0:9a:09:b8:3a:38:96:d3:95:c4:c5:56:
         25:b0:c5:9d:7b:6c:bb:4c:8f:16:be:1d:3a:01:e8:20:8e:2a:
         2a:9a:01:64:5e:45:99:62:3a:d1:ac:4b:b3:e1:f6:7a:be:09:
         d8:54:cf:56:e5:b2:05:6f:4c:ce:86:f7:b2:d1:82:9e:ce:b2:
         ec:5b:23:8a:ee:cd:4d:8d:ae:a2:3f:e5:ff:04:a4:09:7e:b9:
         19:be:87:9a:61:bf:80:54:9a:0f:41:5a:cc:f2:fc:2f:39:69:
         81:5c:22:5e:e0:1d:17:27:3a:09:1f:11:d3:d9:cd:ae:62:ea:
         c0:3d:5f:c7:a9:2d:6d:a2:83:bf:e4:34:61:9a:56:70:a8:5a:
         ee:c1:14:8a:ab:c8:b2:ba:fe:39:e1:e0:a6:c5:05:54:09:98:
         a2:21:28:43:54:70:7f:75:3b:34:79:26:db:0f:b5:db:b0:ac:
         95:b4:b0:3a:93:38:79:e1:f5:f7:31:ec:e5:7d:08:8d:2d:9b:
         6b:24:20:f3:66:ea:42:ac:c4:b0:d4:31:43:de:b8:65:f2:78:
         9c:64:86:2e:56:4a:64:b8:03:49:a6:9d:56:8c:9a:2c:1d:54:
         f6:11:62:0d:92:f4:3f:53:fe:89:72:ea:3b:d5:54:1a:ae:7d:
         ee:07:53:b2
-----BEGIN CERTIFICATE-----
MIIDRTCCAi0CAQIwDQYJKoZIhvcNAQELBQAwgYIxCzAJBgNVBAYTAmNuMRAwDgYD
VQQIDAdiZWlqaW5nMQswCQYDVQQHDAJiajEQMA4GA1UECgwHdGVuY2VudDEMMAoG
A1UECwwDaW92MQ0wCwYDVQQDDARnYWxlMSUwIwYJKoZIhvcNAQkBFhZnYWxlLnpo
YW5nQG91dGxvb2suY29tMB4XDTIyMDUyNzA3NTQ1NFoXDTIyMDYyNjA3NTQ1NFow
TjELMAkGA1UEBhMCY24xEDAOBgNVBAgMB2JlaWppbmcxEDAOBgNVBAoMB3RlbmNl
bnQxDDAKBgNVBAsMA2lvdjENMAsGA1UEAwwEZ2FsZTCCASIwDQYJKoZIhvcNAQEB
BQADggEPADCCAQoCggEBAN6e6eH5GhUGlWxhvSwCOFzPuaA6M+nc587IiybC/ZK2
y1Ec64NbOzcW77f2VpBDxdLOqGW94wPc5J/L4XvUIbIkz2/W2JdYHS98Vqhzqh8o
4jzyzdN+gYt1/aNGMBn4b4eG+yRXGTXfdh5HpHcVBoFj7vDuqaBAtxXryV1+Gmzz
nurJUmqZY8wrGW6r7J/CgWcp4/5hl4JlS6M9tpZbwpfI9g3C+dXNgv9saZs80LtB
4rZcF5WspISvO8cGown/msMaLrabrJ5sfd1IdBjW0MZcopwCiwM1xTdnHELN0dcL
iw5UXy3kzD+eZg+yagOPaEvcGUtDRI7BY0hWZ7gM3PcCAwEAATANBgkqhkiG9w0B
AQsFAAOCAQEAACDsdxfC4JoJuDo4ltOVxMVWJbDFnXtsu0yPFr4dOgHoII4qKpoB
ZF5FmWI60axLs+H2er4J2FTPVuWyBW9Mzob3stGCns6y7Fsjiu7NTY2uoj/l/wSk
CX65Gb6HmmG/gFSaD0FazPL8LzlpgVwiXuAdFyc6CR8R09nNrmLqwD1fx6ktbaKD
v+Q0YZpWcKha7sEUiqvIsrr+OeHgpsUFVAmYoiEoQ1Rwf3U7NHkm2w+127CslbSw
OpM4eeH19zHs5X0IjS2bayQg82bqQqzEsNQxQ964ZfJ4nGSGLlZKZLgDSaadVoya
LB1U9hFiDZL0P1P+iXLqO9VUGq597gdTsg==
-----END CERTIFICATE-----
